; Function Attrs: nounwind uwtable
define ptr @l_Lean_Environment_replayConsts_replayKernel_unsafe__1(ptr noundef %0, ptr noundef %1, ptr noundef %2, ptr noundef readonly captures(none) %3, ptr noundef %4, ptr noundef %5) local_unnamed_addr #1 {
  %7 = getelementptr inbounds nuw i8, ptr %4, i64 32
  %8 = load ptr, ptr %7, align 8, !tbaa !9
  %9 = ptrtoint ptr %8 to i64
  %10 = and i64 %9, 1
  %.not = icmp eq i64 %10, 0
  br i1 %.not, label %11, label %lean_inc.exit30

11:                                               ; preds = %6
  %.val.i = load i32, ptr %8, align 4, !tbaa !4
  %12 = icmp sgt i32 %.val.i, 0
  br i1 %12, label %13, label %15, !prof !11

13:                                               ; preds = %11
  %14 = add nuw i32 %.val.i, 1
  store i32 %14, ptr %8, align 4, !tbaa !4
  br label %lean_inc.exit30

15:                                               ; preds = %11
  %.not.i43 = icmp eq i32 %.val.i, 0
  br i1 %.not.i43, label %lean_inc.exit30, label %16

16:                                               ; preds = %15
  tail call void @lean_inc_ref_cold(ptr noundef nonnull %8) #10
  br label %lean_inc.exit30

lean_inc.exit30:                                  ; preds = %16, %15, %13, %6
  %17 = ptrtoint ptr %4 to i64
  %18 = and i64 %17, 1
  %.not50 = icmp eq i64 %18, 0
  br i1 %.not50, label %19, label %lean_dec.exit34

19:                                               ; preds = %lean_inc.exit30
  %20 = load i32, ptr %4, align 4, !tbaa !4
  %21 = icmp sgt i32 %20, 1
  br i1 %21, label %22, label %24, !prof !11

22:                                               ; preds = %19
  %23 = add nsw i32 %20, -1
  store i32 %23, ptr %4, align 4, !tbaa !4
  br label %lean_dec.exit34

24:                                               ; preds = %19
  %.not.i = icmp eq i32 %20, 0
  br i1 %.not.i, label %lean_dec.exit34, label %25

25:                                               ; preds = %24
  tail call void @lean_dec_ref_cold(ptr noundef nonnull %4) #10
  br label %lean_dec.exit34

lean_dec.exit34:                                  ; preds = %25, %24, %22, %lean_inc.exit30
  %26 = tail call ptr @lean_elab_environment_to_kernel_env(ptr noundef %0)
  %27 = getelementptr inbounds nuw i8, ptr %26, i64 32
  %28 = load ptr, ptr %27, align 8, !tbaa !9
  %29 = ptrtoint ptr %28 to i64
  %30 = and i64 %29, 1
  %.not51 = icmp eq i64 %30, 0
  br i1 %.not51, label %31, label %lean_inc.exit29

31:                                               ; preds = %lean_dec.exit34
  %.val.i44 = load i32, ptr %28, align 4, !tbaa !4
  %32 = icmp sgt i32 %.val.i44, 0
  br i1 %32, label %33, label %35, !prof !11

33:                                               ; preds = %31
  %34 = add nuw i32 %.val.i44, 1
  store i32 %34, ptr %28, align 4, !tbaa !4
  br label %lean_inc.exit29

35:                                               ; preds = %31
  %.not.i45 = icmp eq i32 %.val.i44, 0
  br i1 %.not.i45, label %lean_inc.exit29, label %36

36:                                               ; preds = %35
  tail call void @lean_inc_ref_cold(ptr noundef nonnull %28) #10
  br label %lean_inc.exit29

lean_inc.exit29:                                  ; preds = %36, %35, %33, %lean_dec.exit34
  %37 = ptrtoint ptr %26 to i64
  %38 = and i64 %37, 1
  %.not52 = icmp eq i64 %38, 0
  br i1 %.not52, label %39, label %lean_dec.exit33

39:                                               ; preds = %lean_inc.exit29
  %40 = load i32, ptr %26, align 4, !tbaa !4
  %41 = icmp sgt i32 %40, 1
  br i1 %41, label %42, label %44, !prof !11

42:                                               ; preds = %39
  %43 = add nsw i32 %40, -1
  store i32 %43, ptr %26, align 4, !tbaa !4
  br label %lean_dec.exit33

44:                                               ; preds = %39
  %.not.i35 = icmp eq i32 %40, 0
  br i1 %.not.i35, label %lean_dec.exit33, label %45

45:                                               ; preds = %44
  tail call void @lean_dec_ref_cold(ptr noundef nonnull %26) #10
  br label %lean_dec.exit33

lean_dec.exit33:                                  ; preds = %45, %44, %42, %lean_inc.exit29
  %46 = load ptr, ptr @l_Lean_instInhabitedEnvExtensionState, align 8, !tbaa !9
  %47 = tail call ptr @l___private_Lean_Environment_0__Lean_EnvExtension_getStateImpl___rarg(ptr noundef %46, ptr noundef %3, ptr noundef %28)
  br i1 %.not51, label %48, label %lean_dec.exit32

48:                                               ; preds = %lean_dec.exit33
  %49 = load i32, ptr %28, align 4, !tbaa !4
  %50 = icmp sgt i32 %49, 1
  br i1 %50, label %51, label %53, !prof !11

51:                                               ; preds = %48
  %52 = add nsw i32 %49, -1
  store i32 %52, ptr %28, align 4, !tbaa !4
  br label %lean_dec.exit32

53:                                               ; preds = %48
  %.not.i37 = icmp eq i32 %49, 0
  br i1 %.not.i37, label %lean_dec.exit32, label %54

54:                                               ; preds = %53
  tail call void @lean_dec_ref_cold(ptr noundef nonnull %28) #10
  br label %lean_dec.exit32

lean_dec.exit32:                                  ; preds = %54, %53, %51, %lean_dec.exit33
  %55 = tail call ptr @lean_elab_environment_to_kernel_env(ptr noundef %1)
  %56 = getelementptr inbounds nuw i8, ptr %55, i64 32
  %57 = load ptr, ptr %56, align 8, !tbaa !9
  %58 = ptrtoint ptr %57 to i64
  %59 = and i64 %58, 1
  %.not53 = icmp eq i64 %59, 0
  br i1 %.not53, label %60, label %lean_inc.exit

60:                                               ; preds = %lean_dec.exit32
  %.val.i47 = load i32, ptr %57, align 4, !tbaa !4
  %61 = icmp sgt i32 %.val.i47, 0
  br i1 %61, label %62, label %64, !prof !11

62:                                               ; preds = %60
  %63 = add nuw i32 %.val.i47, 1
  store i32 %63, ptr %57, align 4, !tbaa !4
  br label %lean_inc.exit

64:                                               ; preds = %60
  %.not.i48 = icmp eq i32 %.val.i47, 0
  br i1 %.not.i48, label %lean_inc.exit, label %65

65:                                               ; preds = %64
  tail call void @lean_inc_ref_cold(ptr noundef nonnull %57) #10
  br label %lean_inc.exit

lean_inc.exit:                                    ; preds = %65, %64, %62, %lean_dec.exit32
  %66 = ptrtoint ptr %55 to i64
  %67 = and i64 %66, 1
  %.not54 = icmp eq i64 %67, 0
  br i1 %.not54, label %68, label %lean_dec.exit31

68:                                               ; preds = %lean_inc.exit
  %69 = load i32, ptr %55, align 4, !tbaa !4
  %70 = icmp sgt i32 %69, 1
  br i1 %70, label %71, label %73, !prof !11

71:                                               ; preds = %68
  %72 = add nsw i32 %69, -1
  store i32 %72, ptr %55, align 4, !tbaa !4
  br label %lean_dec.exit31

73:                                               ; preds = %68
  %.not.i39 = icmp eq i32 %69, 0
  br i1 %.not.i39, label %lean_dec.exit31, label %74

74:                                               ; preds = %73
  tail call void @lean_dec_ref_cold(ptr noundef nonnull %55) #10
  br label %lean_dec.exit31

lean_dec.exit31:                                  ; preds = %74, %73, %71, %lean_inc.exit
  %75 = tail call ptr @l___private_Lean_Environment_0__Lean_EnvExtension_getStateImpl___rarg(ptr noundef %46, ptr noundef %3, ptr noundef %57)
  br i1 %.not53, label %76, label %lean_dec.exit

76:                                               ; preds = %lean_dec.exit31
  %77 = load i32, ptr %57, align 4, !tbaa !4
  %78 = icmp sgt i32 %77, 1
  br i1 %78, label %79, label %81, !prof !11

79:                                               ; preds = %76
  %80 = add nsw i32 %77, -1
  store i32 %80, ptr %57, align 4, !tbaa !4
  br label %lean_dec.exit

81:                                               ; preds = %76
  %.not.i41 = icmp eq i32 %77, 0
  br i1 %.not.i41, label %lean_dec.exit, label %82

82:                                               ; preds = %81
  tail call void @lean_dec_ref_cold(ptr noundef nonnull %57) #10
  br label %lean_dec.exit

lean_dec.exit:                                    ; preds = %82, %81, %79, %lean_dec.exit31
  %83 = tail call ptr @l_List_mapTR_loop___at_Lean_Environment_dbgFormatAsyncState___spec__7(ptr noundef %2, ptr noundef nonnull inttoptr (i64 1 to ptr))
  %84 = tail call ptr @lean_apply_3(ptr noundef %5, ptr noundef %47, ptr noundef %75, ptr noundef %83) #10
  %85 = tail call ptr @l___private_Lean_Environment_0__Lean_EnvExtension_modifyStateImpl___rarg(ptr noundef %3, ptr noundef %8, ptr noundef %84)
  ret ptr %85
}